; Function Attrs: mustprogress nofree norecurse nosync nounwind willreturn memory(argmem: readwrite) uwtable
define void @nghttp2_option_set_max_continuations(ptr noundef captures(none) initializes((48, 56)) %0, i64 noundef %1) local_unnamed_addr #4 {
  %3 = getelementptr inbounds nuw i8, ptr %0, i64 56
  %4 = load i32, ptr %3, align 8, !tbaa !8
  %5 = or i32 %4, 65536
  store i32 %5, ptr %3, align 8, !tbaa !8
  %6 = getelementptr inbounds nuw i8, ptr %0, i64 48
  store i64 %1, ptr %6, align 8, !tbaa !29
  ret void
}